#include <math.h>
#include <stdio.h>
#include <stdlib.h>
#include <string.h>

int a[300]={0};
int N;
void main()
{
	char c;
	int i=0;
	while((c=getchar())!='\n')
	{
		if(c>='0'&&c<='9')
			a[i]=10*a[i]+c-'0';
		else
			i++;
	}
	N=i+1;
	if(N==1)
		printf("No");
	else
	{
		int max=0;
		for(i=0;i<N;i++)
		{
			if(a[i]>max)
				max=a[i];
		}
		for(i=0;i<N;i++)
		{
			if(a[i]==max)
				a[i]=0;
		}
		max=0;
		for(i=0;i<N;i++)
		{
			if(a[i]>max)
				max=a[i];
		}
		if(max!=0)
			printf("%d",max);
		else
			printf("No");
	}
}