; ModuleID = '22/254.c'
source_filename = "22/254.c"
target datalayout = "e-m:e-p270:32:32-p271:32:32-p272:64:64-i64:64-f80:128-n8:16:32:64-S128"
target triple = "x86_64-pc-linux-gnu"

@a = dso_local global [300 x i32] zeroinitializer, align 16
@N = common dso_local global i32 0, align 4
@.str = private unnamed_addr constant [3 x i8] c"No\00", align 1
@.str.1 = private unnamed_addr constant [3 x i8] c"%d\00", align 1

; Function Attrs: noinline nounwind uwtable
define dso_local void @main() #0 {
  %1 = alloca i8, align 1
  %2 = alloca i32, align 4
  %3 = alloca i32, align 4
  store i32 0, i32* %2, align 4
  br label %4

4:                                                ; preds = %33, %0
  %5 = call i32 @getchar()
  %6 = trunc i32 %5 to i8
  store i8 %6, i8* %1, align 1
  %7 = sext i8 %6 to i32
  %8 = icmp ne i32 %7, 10
  br i1 %8, label %9, label %34

9:                                                ; preds = %4
  %10 = load i8, i8* %1, align 1
  %11 = sext i8 %10 to i32
  %12 = icmp sge i32 %11, 48
  br i1 %12, label %13, label %30

13:                                               ; preds = %9
  %14 = load i8, i8* %1, align 1
  %15 = sext i8 %14 to i32
  %16 = icmp sle i32 %15, 57
  br i1 %16, label %17, label %30

17:                                               ; preds = %13
  %18 = load i32, i32* %2, align 4
  %19 = sext i32 %18 to i64
  %20 = getelementptr inbounds [300 x i32], [300 x i32]* @a, i64 0, i64 %19
  %21 = load i32, i32* %20, align 4
  %22 = mul nsw i32 10, %21
  %23 = load i8, i8* %1, align 1
  %24 = sext i8 %23 to i32
  %25 = add nsw i32 %22, %24
  %26 = sub nsw i32 %25, 48
  %27 = load i32, i32* %2, align 4
  %28 = sext i32 %27 to i64
  %29 = getelementptr inbounds [300 x i32], [300 x i32]* @a, i64 0, i64 %28
  store i32 %26, i32* %29, align 4
  br label %33

30:                                               ; preds = %13, %9
  %31 = load i32, i32* %2, align 4
  %32 = add nsw i32 %31, 1
  store i32 %32, i32* %2, align 4
  br label %33

33:                                               ; preds = %30, %17
  br label %4

34:                                               ; preds = %4
  %35 = load i32, i32* %2, align 4
  %36 = add nsw i32 %35, 1
  store i32 %36, i32* @N, align 4
  %37 = load i32, i32* @N, align 4
  %38 = icmp eq i32 %37, 1
  br i1 %38, label %39, label %41

39:                                               ; preds = %34
  %40 = call i32 (i8*, ...) @printf(i8* getelementptr inbounds ([3 x i8], [3 x i8]* @.str, i64 0, i64 0))
  br label %112

41:                                               ; preds = %34
  store i32 0, i32* %3, align 4
  store i32 0, i32* %2, align 4
  br label %42

42:                                               ; preds = %59, %41
  %43 = load i32, i32* %2, align 4
  %44 = load i32, i32* @N, align 4
  %45 = icmp slt i32 %43, %44
  br i1 %45, label %46, label %62

46:                                               ; preds = %42
  %47 = load i32, i32* %2, align 4
  %48 = sext i32 %47 to i64
  %49 = getelementptr inbounds [300 x i32], [300 x i32]* @a, i64 0, i64 %48
  %50 = load i32, i32* %49, align 4
  %51 = load i32, i32* %3, align 4
  %52 = icmp sgt i32 %50, %51
  br i1 %52, label %53, label %58

53:                                               ; preds = %46
  %54 = load i32, i32* %2, align 4
  %55 = sext i32 %54 to i64
  %56 = getelementptr inbounds [300 x i32], [300 x i32]* @a, i64 0, i64 %55
  %57 = load i32, i32* %56, align 4
  store i32 %57, i32* %3, align 4
  br label %58

58:                                               ; preds = %53, %46
  br label %59

59:                                               ; preds = %58
  %60 = load i32, i32* %2, align 4
  %61 = add nsw i32 %60, 1
  store i32 %61, i32* %2, align 4
  br label %42

62:                                               ; preds = %42
  store i32 0, i32* %2, align 4
  br label %63

63:                                               ; preds = %79, %62
  %64 = load i32, i32* %2, align 4
  %65 = load i32, i32* @N, align 4
  %66 = icmp slt i32 %64, %65
  br i1 %66, label %67, label %82

67:                                               ; preds = %63
  %68 = load i32, i32* %2, align 4
  %69 = sext i32 %68 to i64
  %70 = getelementptr inbounds [300 x i32], [300 x i32]* @a, i64 0, i64 %69
  %71 = load i32, i32* %70, align 4
  %72 = load i32, i32* %3, align 4
  %73 = icmp eq i32 %71, %72
  br i1 %73, label %74, label %78

74:                                               ; preds = %67
  %75 = load i32, i32* %2, align 4
  %76 = sext i32 %75 to i64
  %77 = getelementptr inbounds [300 x i32], [300 x i32]* @a, i64 0, i64 %76
  store i32 0, i32* %77, align 4
  br label %78

78:                                               ; preds = %74, %67
  br label %79

79:                                               ; preds = %78
  %80 = load i32, i32* %2, align 4
  %81 = add nsw i32 %80, 1
  store i32 %81, i32* %2, align 4
  br label %63

82:                                               ; preds = %63
  store i32 0, i32* %3, align 4
  store i32 0, i32* %2, align 4
  br label %83

83:                                               ; preds = %100, %82
  %84 = load i32, i32* %2, align 4
  %85 = load i32, i32* @N, align 4
  %86 = icmp slt i32 %84, %85
  br i1 %86, label %87, label %103

87:                                               ; preds = %83
  %88 = load i32, i32* %2, align 4
  %89 = sext i32 %88 to i64
  %90 = getelementptr inbounds [300 x i32], [300 x i32]* @a, i64 0, i64 %89
  %91 = load i32, i32* %90, align 4
  %92 = load i32, i32* %3, align 4
  %93 = icmp sgt i32 %91, %92
  br i1 %93, label %94, label %99

94:                                               ; preds = %87
  %95 = load i32, i32* %2, align 4
  %96 = sext i32 %95 to i64
  %97 = getelementptr inbounds [300 x i32], [300 x i32]* @a, i64 0, i64 %96
  %98 = load i32, i32* %97, align 4
  store i32 %98, i32* %3, align 4
  br label %99

99:                                               ; preds = %94, %87
  br label %100

100:                                              ; preds = %99
  %101 = load i32, i32* %2, align 4
  %102 = add nsw i32 %101, 1
  store i32 %102, i32* %2, align 4
  br label %83

103:                                              ; preds = %83
  %104 = load i32, i32* %3, align 4
  %105 = icmp ne i32 %104, 0
  br i1 %105, label %106, label %109

106:                                              ; preds = %103
  %107 = load i32, i32* %3, align 4
  %108 = call i32 (i8*, ...) @printf(i8* getelementptr inbounds ([3 x i8], [3 x i8]* @.str.1, i64 0, i64 0), i32 %107)
  br label %111

109:                                              ; preds = %103
  %110 = call i32 (i8*, ...) @printf(i8* getelementptr inbounds ([3 x i8], [3 x i8]* @.str, i64 0, i64 0))
  br label %111

111:                                              ; preds = %109, %106
  br label %112

112:                                              ; preds = %111, %39
  ret void
}

declare dso_local i32 @getchar() #1

declare dso_local i32 @printf(i8*, ...) #1


!llvm.module.flags = !{!0}
!llvm.ident = !{!1}

!0 = !{i32 1, !"wchar_size", i32 4}
!1 = !{!"clang version 10.0.0-4ubuntu1 "}
